ARM GAS  C:\Users\ASUS\AppData\Local\Temp\cc6sGpfU.s 			page 1


   1              		.cpu cortex-m3
   2              		.arch armv7-m
   3              		.fpu softvfp
   4              		.eabi_attribute 20, 1
   5              		.eabi_attribute 21, 1
   6              		.eabi_attribute 23, 3
   7              		.eabi_attribute 24, 1
   8              		.eabi_attribute 25, 1
   9              		.eabi_attribute 26, 1
  10              		.eabi_attribute 30, 1
  11              		.eabi_attribute 34, 1
  12              		.eabi_attribute 18, 4
  13              		.file	"MPU6050.c"
  14              		.text
  15              	.Ltext0:
  16              		.cfi_sections	.debug_frame
  17              		.file 1 "Application/MPU6050.c"
  18              		.section	.text.MPU6050_Init,"ax",%progbits
  19              		.align	1
  20              		.global	MPU6050_Init
  21              		.syntax unified
  22              		.thumb
  23              		.thumb_func
  25              	MPU6050_Init:
  26              	.LFB65:
   1:Application/MPU6050.c **** #include "MPU6050.h"
   2:Application/MPU6050.c **** #include <math.h>
   3:Application/MPU6050.c **** #include "main.h"
   4:Application/MPU6050.c **** extern I2C_HandleTypeDef hi2c1;
   5:Application/MPU6050.c **** #ifndef M_PI
   6:Application/MPU6050.c **** #define M_PI 3.14159265358979323846f
   7:Application/MPU6050.c **** #endif
   8:Application/MPU6050.c **** #define sampleFreq	1000.0f			// sample frequency in Hz
   9:Application/MPU6050.c **** #define twoKpDef	(2.0f * 20.75f)	// 2 * proportional gain
  10:Application/MPU6050.c **** #define twoKiDef	(2.0f * 0.001f)	// 2 * integral gain
  11:Application/MPU6050.c **** mn n;
  12:Application/MPU6050.c **** MahonyFilter mf;
  13:Application/MPU6050.c **** void MPU6050_Init(void) {
  27              		.loc 1 13 25 view -0
  28              		.cfi_startproc
  29              		@ args = 0, pretend = 0, frame = 8
  30              		@ frame_needed = 0, uses_anonymous_args = 0
  31 0000 2DE9F041 		push	{r4, r5, r6, r7, r8, lr}
  32              	.LCFI0:
  33              		.cfi_def_cfa_offset 24
  34              		.cfi_offset 4, -24
  35              		.cfi_offset 5, -20
  36              		.cfi_offset 6, -16
  37              		.cfi_offset 7, -12
  38              		.cfi_offset 8, -8
  39              		.cfi_offset 14, -4
  40 0004 86B0     		sub	sp, sp, #24
  41              	.LCFI1:
  42              		.cfi_def_cfa_offset 48
  14:Application/MPU6050.c ****     uint8_t data = 0;
  43              		.loc 1 14 5 view .LVU1
  44              		.loc 1 14 13 is_stmt 0 view .LVU2
ARM GAS  C:\Users\ASUS\AppData\Local\Temp\cc6sGpfU.s 			page 2


  45 0006 4FF00008 		mov	r8, #0
  46 000a 8DF81780 		strb	r8, [sp, #23]
  15:Application/MPU6050.c ****     // ÕöżķåÆMPU6050
  16:Application/MPU6050.c ****     data = 0x00;
  47              		.loc 1 16 5 is_stmt 1 view .LVU3
  17:Application/MPU6050.c ****     HAL_I2C_Mem_Write(&hi2c1, MPU6050_ADDR, PWR_MGMT_1, 1, &data, 1, HAL_MAX_DELAY);
  48              		.loc 1 17 5 view .LVU4
  49 000e 144D     		ldr	r5, .L3
  50 0010 4FF0FF37 		mov	r7, #-1
  51 0014 0297     		str	r7, [sp, #8]
  52 0016 0124     		movs	r4, #1
  53 0018 0194     		str	r4, [sp, #4]
  54 001a 0DF11706 		add	r6, sp, #23
  55 001e 0096     		str	r6, [sp]
  56 0020 2346     		mov	r3, r4
  57 0022 6B22     		movs	r2, #107
  58 0024 D021     		movs	r1, #208
  59 0026 2846     		mov	r0, r5
  60 0028 FFF7FEFF 		bl	HAL_I2C_Mem_Write
  61              	.LVL0:
  18:Application/MPU6050.c ****     // ķģŹńĮ«ÕŖĀķĆ¤Õ║”Ķ«ĪķćÅń©ŗ’╝Ü┬▒2g
  19:Application/MPU6050.c ****     data = 0x00;
  62              		.loc 1 19 5 view .LVU5
  63              		.loc 1 19 10 is_stmt 0 view .LVU6
  64 002c 8DF81780 		strb	r8, [sp, #23]
  20:Application/MPU6050.c ****     HAL_I2C_Mem_Write(&hi2c1, MPU6050_ADDR, ACCEL_CONFIG, 1, &data, 1, HAL_MAX_DELAY);
  65              		.loc 1 20 5 is_stmt 1 view .LVU7
  66 0030 0297     		str	r7, [sp, #8]
  67 0032 0194     		str	r4, [sp, #4]
  68 0034 0096     		str	r6, [sp]
  69 0036 2346     		mov	r3, r4
  70 0038 1C22     		movs	r2, #28
  71 003a D021     		movs	r1, #208
  72 003c 2846     		mov	r0, r5
  73 003e FFF7FEFF 		bl	HAL_I2C_Mem_Write
  74              	.LVL1:
  21:Application/MPU6050.c ****     // ķģŹńĮ«ķÖĆĶ×║õ╗¬ķćÅń©ŗ’╝Ü┬▒250┬░/s 
  22:Application/MPU6050.c ****     data = 0x00;
  75              		.loc 1 22 5 view .LVU8
  76              		.loc 1 22 10 is_stmt 0 view .LVU9
  77 0042 8DF81780 		strb	r8, [sp, #23]
  23:Application/MPU6050.c ****     HAL_I2C_Mem_Write(&hi2c1, MPU6050_ADDR, GYRO_CONFIG, 1, &data, 1, HAL_MAX_DELAY);
  78              		.loc 1 23 5 is_stmt 1 view .LVU10
  79 0046 0297     		str	r7, [sp, #8]
  80 0048 0194     		str	r4, [sp, #4]
  81 004a 0096     		str	r6, [sp]
  82 004c 2346     		mov	r3, r4
  83 004e 1B22     		movs	r2, #27
  84 0050 D021     		movs	r1, #208
  85 0052 2846     		mov	r0, r5
  86 0054 FFF7FEFF 		bl	HAL_I2C_Mem_Write
  87              	.LVL2:
  24:Application/MPU6050.c **** }
  88              		.loc 1 24 1 is_stmt 0 view .LVU11
  89 0058 06B0     		add	sp, sp, #24
  90              	.LCFI2:
  91              		.cfi_def_cfa_offset 24
ARM GAS  C:\Users\ASUS\AppData\Local\Temp\cc6sGpfU.s 			page 3


  92              		@ sp needed
  93 005a BDE8F081 		pop	{r4, r5, r6, r7, r8, pc}
  94              	.L4:
  95 005e 00BF     		.align	2
  96              	.L3:
  97 0060 00000000 		.word	hi2c1
  98              		.cfi_endproc
  99              	.LFE65:
 101              		.global	__aeabi_i2f
 102              		.global	__aeabi_fmul
 103              		.global	__aeabi_fdiv
 104              		.global	__aeabi_f2d
 105              		.global	__aeabi_ddiv
 106              		.global	__aeabi_d2f
 107              		.section	.text.MPU6050_ReadRawData,"ax",%progbits
 108              		.align	1
 109              		.global	MPU6050_ReadRawData
 110              		.syntax unified
 111              		.thumb
 112              		.thumb_func
 114              	MPU6050_ReadRawData:
 115              	.LVL3:
 116              	.LFB66:
  25:Application/MPU6050.c **** 
  26:Application/MPU6050.c **** 
  27:Application/MPU6050.c **** 
  28:Application/MPU6050.c **** void MPU6050_ReadRawData(MahonyFilter *m) {
 117              		.loc 1 28 43 is_stmt 1 view -0
 118              		.cfi_startproc
 119              		@ args = 0, pretend = 0, frame = 16
 120              		@ frame_needed = 0, uses_anonymous_args = 0
 121              		.loc 1 28 43 is_stmt 0 view .LVU13
 122 0000 10B5     		push	{r4, lr}
 123              	.LCFI3:
 124              		.cfi_def_cfa_offset 8
 125              		.cfi_offset 4, -8
 126              		.cfi_offset 14, -4
 127 0002 88B0     		sub	sp, sp, #32
 128              	.LCFI4:
 129              		.cfi_def_cfa_offset 40
 130 0004 0446     		mov	r4, r0
  29:Application/MPU6050.c ****     uint8_t buf[14];
 131              		.loc 1 29 5 is_stmt 1 view .LVU14
  30:Application/MPU6050.c ****     HAL_I2C_Mem_Read(&hi2c1, MPU6050_ADDR, ACCEL_XOUT_H, 1, buf, 14, HAL_MAX_DELAY);
 132              		.loc 1 30 5 view .LVU15
 133 0006 4FF0FF33 		mov	r3, #-1
 134 000a 0293     		str	r3, [sp, #8]
 135 000c 0E23     		movs	r3, #14
 136 000e 0193     		str	r3, [sp, #4]
 137 0010 04AB     		add	r3, sp, #16
 138 0012 0093     		str	r3, [sp]
 139 0014 0123     		movs	r3, #1
 140 0016 3B22     		movs	r2, #59
 141 0018 D021     		movs	r1, #208
 142 001a 3B48     		ldr	r0, .L7+8
 143              	.LVL4:
 144              		.loc 1 30 5 is_stmt 0 view .LVU16
ARM GAS  C:\Users\ASUS\AppData\Local\Temp\cc6sGpfU.s 			page 4


 145 001c FFF7FEFF 		bl	HAL_I2C_Mem_Read
 146              	.LVL5:
  31:Application/MPU6050.c ****     m->AccX_Raw = (int16_t)((buf[0] << 8) | buf[1])/ 16384.0f;
 147              		.loc 1 31 5 is_stmt 1 view .LVU17
 148              		.loc 1 31 33 is_stmt 0 view .LVU18
 149 0020 9DF81030 		ldrb	r3, [sp, #16]	@ zero_extendqisi2
 150              		.loc 1 31 48 view .LVU19
 151 0024 9DF81100 		ldrb	r0, [sp, #17]	@ zero_extendqisi2
 152              		.loc 1 31 19 view .LVU20
 153 0028 40EA0320 		orr	r0, r0, r3, lsl #8
 154              		.loc 1 31 52 view .LVU21
 155 002c 00B2     		sxth	r0, r0
 156 002e FFF7FEFF 		bl	__aeabi_i2f
 157              	.LVL6:
 158 0032 4FF06251 		mov	r1, #947912704
 159 0036 FFF7FEFF 		bl	__aeabi_fmul
 160              	.LVL7:
 161              		.loc 1 31 17 view .LVU22
 162 003a 2060     		str	r0, [r4]	@ float
  32:Application/MPU6050.c ****     m->AccY_Raw = (int16_t)((buf[2] << 8) | buf[3])/ 16384.0f; 
 163              		.loc 1 32 5 is_stmt 1 view .LVU23
 164              		.loc 1 32 33 is_stmt 0 view .LVU24
 165 003c 9DF81230 		ldrb	r3, [sp, #18]	@ zero_extendqisi2
 166              		.loc 1 32 48 view .LVU25
 167 0040 9DF81300 		ldrb	r0, [sp, #19]	@ zero_extendqisi2
 168              		.loc 1 32 19 view .LVU26
 169 0044 40EA0320 		orr	r0, r0, r3, lsl #8
 170              		.loc 1 32 52 view .LVU27
 171 0048 00B2     		sxth	r0, r0
 172 004a FFF7FEFF 		bl	__aeabi_i2f
 173              	.LVL8:
 174 004e 4FF06251 		mov	r1, #947912704
 175 0052 FFF7FEFF 		bl	__aeabi_fmul
 176              	.LVL9:
 177              		.loc 1 32 17 view .LVU28
 178 0056 6060     		str	r0, [r4, #4]	@ float
  33:Application/MPU6050.c ****     m->AccZ_Raw = (int16_t)((buf[4] << 8) | buf[5])/ 16384.0f; 
 179              		.loc 1 33 5 is_stmt 1 view .LVU29
 180              		.loc 1 33 33 is_stmt 0 view .LVU30
 181 0058 9DF81430 		ldrb	r3, [sp, #20]	@ zero_extendqisi2
 182              		.loc 1 33 48 view .LVU31
 183 005c 9DF81500 		ldrb	r0, [sp, #21]	@ zero_extendqisi2
 184              		.loc 1 33 19 view .LVU32
 185 0060 40EA0320 		orr	r0, r0, r3, lsl #8
 186              		.loc 1 33 52 view .LVU33
 187 0064 00B2     		sxth	r0, r0
 188 0066 FFF7FEFF 		bl	__aeabi_i2f
 189              	.LVL10:
 190 006a 4FF06251 		mov	r1, #947912704
 191 006e FFF7FEFF 		bl	__aeabi_fmul
 192              	.LVL11:
 193              		.loc 1 33 17 view .LVU34
 194 0072 A060     		str	r0, [r4, #8]	@ float
  34:Application/MPU6050.c ****     m->GyroX_Raw = ((int16_t)((buf[8] << 8) | buf[9])/ 131.0f)/57.3;
 195              		.loc 1 34 5 is_stmt 1 view .LVU35
 196              		.loc 1 34 35 is_stmt 0 view .LVU36
 197 0074 9DF81830 		ldrb	r3, [sp, #24]	@ zero_extendqisi2
ARM GAS  C:\Users\ASUS\AppData\Local\Temp\cc6sGpfU.s 			page 5


 198              		.loc 1 34 50 view .LVU37
 199 0078 9DF81900 		ldrb	r0, [sp, #25]	@ zero_extendqisi2
 200              		.loc 1 34 21 view .LVU38
 201 007c 40EA0320 		orr	r0, r0, r3, lsl #8
 202              		.loc 1 34 54 view .LVU39
 203 0080 00B2     		sxth	r0, r0
 204 0082 FFF7FEFF 		bl	__aeabi_i2f
 205              	.LVL12:
 206 0086 2149     		ldr	r1, .L7+12
 207 0088 FFF7FEFF 		bl	__aeabi_fdiv
 208              	.LVL13:
 209 008c FFF7FEFF 		bl	__aeabi_f2d
 210              	.LVL14:
 211              		.loc 1 34 63 view .LVU40
 212 0090 1BA3     		adr	r3, .L7
 213 0092 D3E90023 		ldrd	r2, [r3]
 214 0096 FFF7FEFF 		bl	__aeabi_ddiv
 215              	.LVL15:
 216 009a FFF7FEFF 		bl	__aeabi_d2f
 217              	.LVL16:
 218              		.loc 1 34 18 view .LVU41
 219 009e E060     		str	r0, [r4, #12]	@ float
  35:Application/MPU6050.c ****     m->GyroY_Raw = ((int16_t)((buf[10] << 8) | buf[11])/ 131.0f)/57.3;
 220              		.loc 1 35 5 is_stmt 1 view .LVU42
 221              		.loc 1 35 35 is_stmt 0 view .LVU43
 222 00a0 9DF81A30 		ldrb	r3, [sp, #26]	@ zero_extendqisi2
 223              		.loc 1 35 51 view .LVU44
 224 00a4 9DF81B00 		ldrb	r0, [sp, #27]	@ zero_extendqisi2
 225              		.loc 1 35 21 view .LVU45
 226 00a8 40EA0320 		orr	r0, r0, r3, lsl #8
 227              		.loc 1 35 56 view .LVU46
 228 00ac 00B2     		sxth	r0, r0
 229 00ae FFF7FEFF 		bl	__aeabi_i2f
 230              	.LVL17:
 231 00b2 1649     		ldr	r1, .L7+12
 232 00b4 FFF7FEFF 		bl	__aeabi_fdiv
 233              	.LVL18:
 234 00b8 FFF7FEFF 		bl	__aeabi_f2d
 235              	.LVL19:
 236              		.loc 1 35 65 view .LVU47
 237 00bc 10A3     		adr	r3, .L7
 238 00be D3E90023 		ldrd	r2, [r3]
 239 00c2 FFF7FEFF 		bl	__aeabi_ddiv
 240              	.LVL20:
 241 00c6 FFF7FEFF 		bl	__aeabi_d2f
 242              	.LVL21:
 243              		.loc 1 35 18 view .LVU48
 244 00ca 2061     		str	r0, [r4, #16]	@ float
  36:Application/MPU6050.c ****     m->GyroZ_Raw = ((int16_t)((buf[12] << 8) | buf[13])/ 131.0f)/57.3;
 245              		.loc 1 36 5 is_stmt 1 view .LVU49
 246              		.loc 1 36 35 is_stmt 0 view .LVU50
 247 00cc 9DF81C30 		ldrb	r3, [sp, #28]	@ zero_extendqisi2
 248              		.loc 1 36 51 view .LVU51
 249 00d0 9DF81D00 		ldrb	r0, [sp, #29]	@ zero_extendqisi2
 250              		.loc 1 36 21 view .LVU52
 251 00d4 40EA0320 		orr	r0, r0, r3, lsl #8
 252              		.loc 1 36 56 view .LVU53
ARM GAS  C:\Users\ASUS\AppData\Local\Temp\cc6sGpfU.s 			page 6


 253 00d8 00B2     		sxth	r0, r0
 254 00da FFF7FEFF 		bl	__aeabi_i2f
 255              	.LVL22:
 256 00de 0B49     		ldr	r1, .L7+12
 257 00e0 FFF7FEFF 		bl	__aeabi_fdiv
 258              	.LVL23:
 259 00e4 FFF7FEFF 		bl	__aeabi_f2d
 260              	.LVL24:
 261              		.loc 1 36 65 view .LVU54
 262 00e8 05A3     		adr	r3, .L7
 263 00ea D3E90023 		ldrd	r2, [r3]
 264 00ee FFF7FEFF 		bl	__aeabi_ddiv
 265              	.LVL25:
 266 00f2 FFF7FEFF 		bl	__aeabi_d2f
 267              	.LVL26:
 268              		.loc 1 36 18 view .LVU55
 269 00f6 6061     		str	r0, [r4, #20]	@ float
  37:Application/MPU6050.c **** }
 270              		.loc 1 37 1 view .LVU56
 271 00f8 08B0     		add	sp, sp, #32
 272              	.LCFI5:
 273              		.cfi_def_cfa_offset 8
 274              		@ sp needed
 275 00fa 10BD     		pop	{r4, pc}
 276              	.LVL27:
 277              	.L8:
 278              		.loc 1 37 1 view .LVU57
 279 00fc AFF30080 		.align	3
 280              	.L7:
 281 0100 66666666 		.word	1717986918
 282 0104 66A64C40 		.word	1078765158
 283 0108 00000000 		.word	hi2c1
 284 010c 00000343 		.word	1124270080
 285              		.cfi_endproc
 286              	.LFE66:
 288              		.global	__aeabi_fcmple
 289              		.global	__aeabi_fsub
 290              		.section	.text.invSqrt,"ax",%progbits
 291              		.align	1
 292              		.global	invSqrt
 293              		.syntax unified
 294              		.thumb
 295              		.thumb_func
 297              	invSqrt:
 298              	.LVL28:
 299              	.LFB67:
  38:Application/MPU6050.c **** 
  39:Application/MPU6050.c **** //volatile float q0 = 1.0f, q1 = 0.0f, q2 = 0.0f, q3 = 0.0f;					// quaternion of sensor frame rela
  40:Application/MPU6050.c **** volatile float integralFBx = 0.0f,  integralFBy = 0.0f, integralFBz = 0.0f;	// integral error terms
  41:Application/MPU6050.c **** float invSqrt(float x) {
 300              		.loc 1 41 24 is_stmt 1 view -0
 301              		.cfi_startproc
 302              		@ args = 0, pretend = 0, frame = 0
 303              		@ frame_needed = 0, uses_anonymous_args = 0
 304              		.loc 1 41 24 is_stmt 0 view .LVU59
 305 0000 10B5     		push	{r4, lr}
 306              	.LCFI6:
ARM GAS  C:\Users\ASUS\AppData\Local\Temp\cc6sGpfU.s 			page 7


 307              		.cfi_def_cfa_offset 8
 308              		.cfi_offset 4, -8
 309              		.cfi_offset 14, -4
 310 0002 0446     		mov	r4, r0
  42:Application/MPU6050.c ****     if (x <= 0.0f) return 0.0f;
 311              		.loc 1 42 5 is_stmt 1 view .LVU60
 312              		.loc 1 42 8 is_stmt 0 view .LVU61
 313 0004 0021     		movs	r1, #0
 314 0006 FFF7FEFF 		bl	__aeabi_fcmple
 315              	.LVL29:
 316              		.loc 1 42 8 view .LVU62
 317 000a C8B9     		cbnz	r0, .L11
  43:Application/MPU6050.c ****     float x2 = x * 0.5f;
 318              		.loc 1 43 5 is_stmt 1 view .LVU63
 319              		.loc 1 43 11 is_stmt 0 view .LVU64
 320 000c 4FF07C51 		mov	r1, #1056964608
 321 0010 2046     		mov	r0, r4
 322 0012 FFF7FEFF 		bl	__aeabi_fmul
 323              	.LVL30:
 324 0016 0146     		mov	r1, r0
 325              	.LVL31:
  44:Application/MPU6050.c ****     float y = x;
 326              		.loc 1 44 5 is_stmt 1 view .LVU65
  45:Application/MPU6050.c ****     int i = *(int*)&y;
 327              		.loc 1 45 5 view .LVU66
  46:Application/MPU6050.c ****     i = 0x5f3759df - (i >> 1);
 328              		.loc 1 46 5 view .LVU67
  47:Application/MPU6050.c ****     y = *(float*)&i;
 329              		.loc 1 47 5 view .LVU68
 330              		.loc 1 47 9 is_stmt 0 view .LVU69
 331 0018 0A4B     		ldr	r3, .L13
 332 001a A3EB6404 		sub	r4, r3, r4, asr #1
 333              	.LVL32:
  48:Application/MPU6050.c ****     y = y * (1.5f - x2 * y * y);
 334              		.loc 1 48 5 is_stmt 1 view .LVU70
 335              		.loc 1 48 24 is_stmt 0 view .LVU71
 336 001e 2046     		mov	r0, r4
 337              	.LVL33:
 338              		.loc 1 48 24 view .LVU72
 339 0020 FFF7FEFF 		bl	__aeabi_fmul
 340              	.LVL34:
 341              		.loc 1 48 24 view .LVU73
 342 0024 0146     		mov	r1, r0
 343              		.loc 1 48 28 view .LVU74
 344 0026 2046     		mov	r0, r4
 345 0028 FFF7FEFF 		bl	__aeabi_fmul
 346              	.LVL35:
 347 002c 0146     		mov	r1, r0
 348              		.loc 1 48 19 view .LVU75
 349 002e 4FF07F50 		mov	r0, #1069547520
 350 0032 FFF7FEFF 		bl	__aeabi_fsub
 351              	.LVL36:
 352 0036 0146     		mov	r1, r0
 353              		.loc 1 48 11 view .LVU76
 354 0038 2046     		mov	r0, r4
 355 003a FFF7FEFF 		bl	__aeabi_fmul
 356              	.LVL37:
ARM GAS  C:\Users\ASUS\AppData\Local\Temp\cc6sGpfU.s 			page 8


  49:Application/MPU6050.c ****     return y;
 357              		.loc 1 49 5 is_stmt 1 view .LVU77
 358              	.L9:
  50:Application/MPU6050.c **** }
 359              		.loc 1 50 1 is_stmt 0 view .LVU78
 360 003e 10BD     		pop	{r4, pc}
 361              	.LVL38:
 362              	.L11:
  42:Application/MPU6050.c ****     float x2 = x * 0.5f;
 363              		.loc 1 42 27 view .LVU79
 364 0040 0020     		movs	r0, #0
 365 0042 FCE7     		b	.L9
 366              	.L14:
 367              		.align	2
 368              	.L13:
 369 0044 DF59375F 		.word	1597463007
 370              		.cfi_endproc
 371              	.LFE67:
 373              		.global	__aeabi_fcmpeq
 374              		.global	__aeabi_fadd
 375              		.section	.text.MahonyAHRSupdateIMU,"ax",%progbits
 376              		.align	1
 377              		.global	MahonyAHRSupdateIMU
 378              		.syntax unified
 379              		.thumb
 380              		.thumb_func
 382              	MahonyAHRSupdateIMU:
 383              	.LVL39:
 384              	.LFB68:
  51:Application/MPU6050.c **** 
  52:Application/MPU6050.c **** float q[4] = {1.0f, 0.0f, 0.0f, 0.0f};
  53:Application/MPU6050.c **** void MahonyAHRSupdateIMU(MahonyFilter *m,float *q) {
 385              		.loc 1 53 52 is_stmt 1 view -0
 386              		.cfi_startproc
 387              		@ args = 0, pretend = 0, frame = 16
 388              		@ frame_needed = 0, uses_anonymous_args = 0
 389              		.loc 1 53 52 is_stmt 0 view .LVU81
 390 0000 2DE9F04F 		push	{r4, r5, r6, r7, r8, r9, r10, fp, lr}
 391              	.LCFI7:
 392              		.cfi_def_cfa_offset 36
 393              		.cfi_offset 4, -36
 394              		.cfi_offset 5, -32
 395              		.cfi_offset 6, -28
 396              		.cfi_offset 7, -24
 397              		.cfi_offset 8, -20
 398              		.cfi_offset 9, -16
 399              		.cfi_offset 10, -12
 400              		.cfi_offset 11, -8
 401              		.cfi_offset 14, -4
 402 0004 85B0     		sub	sp, sp, #20
 403              	.LCFI8:
 404              		.cfi_def_cfa_offset 56
 405 0006 0C46     		mov	r4, r1
  54:Application/MPU6050.c **** 	float recipNorm;
 406              		.loc 1 54 2 is_stmt 1 view .LVU82
  55:Application/MPU6050.c **** 	float halfvx, halfvy, halfvz;
 407              		.loc 1 55 2 view .LVU83
ARM GAS  C:\Users\ASUS\AppData\Local\Temp\cc6sGpfU.s 			page 9


  56:Application/MPU6050.c **** 	float halfex, halfey, halfez;
 408              		.loc 1 56 2 view .LVU84
  57:Application/MPU6050.c **** 	float qa, qb, qc;
 409              		.loc 1 57 2 view .LVU85
  58:Application/MPU6050.c ****   float  gx,  gy,  gz,  ax,  ay,  az;
 410              		.loc 1 58 3 view .LVU86
  59:Application/MPU6050.c **** 	  ax = m->AccX_Raw;
 411              		.loc 1 59 4 view .LVU87
 412              		.loc 1 59 7 is_stmt 0 view .LVU88
 413 0008 D0F80090 		ldr	r9, [r0]	@ float
 414              	.LVL40:
  60:Application/MPU6050.c ****     ay = m->AccY_Raw;
 415              		.loc 1 60 5 is_stmt 1 view .LVU89
 416              		.loc 1 60 8 is_stmt 0 view .LVU90
 417 000c D0F80480 		ldr	r8, [r0, #4]	@ float
 418              	.LVL41:
  61:Application/MPU6050.c ****     az = m->AccZ_Raw;
 419              		.loc 1 61 5 is_stmt 1 view .LVU91
 420              		.loc 1 61 8 is_stmt 0 view .LVU92
 421 0010 8768     		ldr	r7, [r0, #8]	@ float
 422              	.LVL42:
  62:Application/MPU6050.c ****     gx = m->GyroX_Raw;
 423              		.loc 1 62 5 is_stmt 1 view .LVU93
 424              		.loc 1 62 8 is_stmt 0 view .LVU94
 425 0012 C568     		ldr	r5, [r0, #12]	@ float
 426              	.LVL43:
  63:Application/MPU6050.c ****     gy = m->GyroY_Raw;
 427              		.loc 1 63 5 is_stmt 1 view .LVU95
 428              		.loc 1 63 8 is_stmt 0 view .LVU96
 429 0014 0369     		ldr	r3, [r0, #16]	@ float
 430 0016 0093     		str	r3, [sp]	@ float
 431              	.LVL44:
  64:Application/MPU6050.c ****     gz = m->GyroZ_Raw;
 432              		.loc 1 64 5 is_stmt 1 view .LVU97
 433              		.loc 1 64 8 is_stmt 0 view .LVU98
 434 0018 4369     		ldr	r3, [r0, #20]	@ float
 435              	.LVL45:
 436              		.loc 1 64 8 view .LVU99
 437 001a 0193     		str	r3, [sp, #4]	@ float
 438              	.LVL46:
  65:Application/MPU6050.c **** 	// Compute feedback only if accelerometer measurement valid (avoids NaN in accelerometer normalisa
  66:Application/MPU6050.c ****     // ÕÅ¬Õ£©ÕŖĀķĆ¤Õ║”Ķ«ĪµĢ░µŹ«µ£ēµĢłµŚČµēŹĶ┐øĶĪīĶ┐Éń«Ś
  67:Application/MPU6050.c **** 	if(!((ax == 0.0f) && (ay == 0.0f) && (az == 0.0f))) {
 439              		.loc 1 67 2 is_stmt 1 view .LVU100
 440              		.loc 1 67 4 is_stmt 0 view .LVU101
 441 001c 0021     		movs	r1, #0
 442              	.LVL47:
 443              		.loc 1 67 4 view .LVU102
 444 001e 4846     		mov	r0, r9
 445              	.LVL48:
 446              		.loc 1 67 4 view .LVU103
 447 0020 FFF7FEFF 		bl	__aeabi_fcmpeq
 448              	.LVL49:
 449              		.loc 1 67 4 view .LVU104
 450 0024 58B1     		cbz	r0, .L16
 451              		.loc 1 67 20 discriminator 1 view .LVU105
 452 0026 0021     		movs	r1, #0
ARM GAS  C:\Users\ASUS\AppData\Local\Temp\cc6sGpfU.s 			page 10


 453 0028 4046     		mov	r0, r8
 454 002a FFF7FEFF 		bl	__aeabi_fcmpeq
 455              	.LVL50:
 456 002e 30B1     		cbz	r0, .L16
 457              		.loc 1 67 5 discriminator 2 view .LVU106
 458 0030 0021     		movs	r1, #0
 459 0032 3846     		mov	r0, r7
 460 0034 FFF7FEFF 		bl	__aeabi_fcmpeq
 461              	.LVL51:
 462 0038 0028     		cmp	r0, #0
 463 003a 40F0E080 		bne	.L17
 464              	.L16:
  68:Application/MPU6050.c **** 
  69:Application/MPU6050.c **** 		// Normalise accelerometer measurement
  70:Application/MPU6050.c ****         // Õ░åÕŖĀķĆ¤Õ║”Ķ«ĪÕŠŚÕł░ńÜäÕ«×ķÖģķćŹÕŖøÕŖĀķĆ¤Õ║”ÕÉæķćÅvÕŹĢõĮŹÕī¢
  71:Application/MPU6050.c **** 		recipNorm = invSqrt(ax * ax + ay * ay + az * az); //Ķ»źÕćĮµĢ░Ķ┐öÕø×Õ╣│µ¢╣µĀ╣ńÜäÕĆÆµĢ░
 465              		.loc 1 71 3 is_stmt 1 view .LVU107
 466              		.loc 1 71 26 is_stmt 0 view .LVU108
 467 003e 4946     		mov	r1, r9
 468 0040 4846     		mov	r0, r9
 469 0042 FFF7FEFF 		bl	__aeabi_fmul
 470              	.LVL52:
 471 0046 0646     		mov	r6, r0
 472              		.loc 1 71 36 view .LVU109
 473 0048 4146     		mov	r1, r8
 474 004a 4046     		mov	r0, r8
 475 004c FFF7FEFF 		bl	__aeabi_fmul
 476              	.LVL53:
 477 0050 0146     		mov	r1, r0
 478              		.loc 1 71 31 view .LVU110
 479 0052 3046     		mov	r0, r6
 480 0054 FFF7FEFF 		bl	__aeabi_fadd
 481              	.LVL54:
 482 0058 0646     		mov	r6, r0
 483              		.loc 1 71 46 view .LVU111
 484 005a 3946     		mov	r1, r7
 485 005c 3846     		mov	r0, r7
 486 005e FFF7FEFF 		bl	__aeabi_fmul
 487              	.LVL55:
 488 0062 0146     		mov	r1, r0
 489              		.loc 1 71 15 view .LVU112
 490 0064 3046     		mov	r0, r6
 491 0066 FFF7FEFF 		bl	__aeabi_fadd
 492              	.LVL56:
 493 006a FFF7FEFF 		bl	invSqrt
 494              	.LVL57:
 495 006e 0646     		mov	r6, r0
 496              	.LVL58:
  72:Application/MPU6050.c **** 		ax *= recipNorm;
 497              		.loc 1 72 3 is_stmt 1 view .LVU113
 498              		.loc 1 72 6 is_stmt 0 view .LVU114
 499 0070 0146     		mov	r1, r0
 500 0072 4846     		mov	r0, r9
 501              	.LVL59:
 502              		.loc 1 72 6 view .LVU115
 503 0074 FFF7FEFF 		bl	__aeabi_fmul
 504              	.LVL60:
ARM GAS  C:\Users\ASUS\AppData\Local\Temp\cc6sGpfU.s 			page 11


 505              		.loc 1 72 6 view .LVU116
 506 0078 0390     		str	r0, [sp, #12]	@ float
 507              	.LVL61:
  73:Application/MPU6050.c **** 		ay *= recipNorm;
 508              		.loc 1 73 3 is_stmt 1 view .LVU117
 509              		.loc 1 73 6 is_stmt 0 view .LVU118
 510 007a 3146     		mov	r1, r6
 511 007c 4046     		mov	r0, r8
 512              	.LVL62:
 513              		.loc 1 73 6 view .LVU119
 514 007e FFF7FEFF 		bl	__aeabi_fmul
 515              	.LVL63:
 516 0082 0290     		str	r0, [sp, #8]	@ float
 517              	.LVL64:
  74:Application/MPU6050.c **** 		az *= recipNorm;        
 518              		.loc 1 74 3 is_stmt 1 view .LVU120
 519              		.loc 1 74 6 is_stmt 0 view .LVU121
 520 0084 3146     		mov	r1, r6
 521 0086 3846     		mov	r0, r7
 522              	.LVL65:
 523              		.loc 1 74 6 view .LVU122
 524 0088 FFF7FEFF 		bl	__aeabi_fmul
 525              	.LVL66:
 526 008c 8346     		mov	fp, r0
 527              	.LVL67:
  75:Application/MPU6050.c **** 
  76:Application/MPU6050.c **** 		// Estimated direction of gravity
  77:Application/MPU6050.c ****         // ķĆÜĶ┐ćÕøøÕģāµĢ░ÕŠŚÕł░ńÉåĶ«║ķćŹÕŖøÕŖĀķĆ¤Õ║”ÕÉæķćÅg 
  78:Application/MPU6050.c ****         // µ│©µäÅ’╝īĶ┐ÖķćīÕ«×ķÖģõĖŖµś»ń¤®ķśĄń¼¼õĖēÕłŚ*1/2’╝īÕ£©Õ╝ĆÕż┤Õ»╣Kp KińÜäÕ«ÅÕ«Üõ╣ēÕØćõĖ║2*Õó
  79:Application/MPU6050.c ****         // Ķ┐ÖµĀĘÕżäńÉåńø«ńÜäµś»ÕćÅÕ░æõ╣śµ│ĢĶ┐Éń«ŚķćÅ
  80:Application/MPU6050.c **** 		halfvx = q[1] * q[3] - q[0] * q[2];
 528              		.loc 1 80 3 is_stmt 1 view .LVU123
 529              		.loc 1 80 13 is_stmt 0 view .LVU124
 530 008e D4F80490 		ldr	r9, [r4, #4]	@ float
 531              		.loc 1 80 20 view .LVU125
 532 0092 E768     		ldr	r7, [r4, #12]	@ float
 533              		.loc 1 80 17 view .LVU126
 534 0094 3946     		mov	r1, r7
 535 0096 4846     		mov	r0, r9
 536              	.LVL68:
 537              		.loc 1 80 17 view .LVU127
 538 0098 FFF7FEFF 		bl	__aeabi_fmul
 539              	.LVL69:
 540 009c 0646     		mov	r6, r0
 541              	.LVL70:
 542              		.loc 1 80 27 view .LVU128
 543 009e D4F80080 		ldr	r8, [r4]	@ float
 544              		.loc 1 80 34 view .LVU129
 545 00a2 D4F808A0 		ldr	r10, [r4, #8]	@ float
 546              		.loc 1 80 31 view .LVU130
 547 00a6 5146     		mov	r1, r10
 548 00a8 4046     		mov	r0, r8
 549 00aa FFF7FEFF 		bl	__aeabi_fmul
 550              	.LVL71:
 551 00ae 0146     		mov	r1, r0
 552              		.loc 1 80 10 view .LVU131
 553 00b0 3046     		mov	r0, r6
ARM GAS  C:\Users\ASUS\AppData\Local\Temp\cc6sGpfU.s 			page 12


 554 00b2 FFF7FEFF 		bl	__aeabi_fsub
 555              	.LVL72:
 556 00b6 0646     		mov	r6, r0
 557              	.LVL73:
  81:Application/MPU6050.c **** 		halfvy = q[0] * q[1] + q[2] * q[3];
 558              		.loc 1 81 3 is_stmt 1 view .LVU132
 559              		.loc 1 81 17 is_stmt 0 view .LVU133
 560 00b8 4146     		mov	r1, r8
 561 00ba 4846     		mov	r0, r9
 562              	.LVL74:
 563              		.loc 1 81 17 view .LVU134
 564 00bc FFF7FEFF 		bl	__aeabi_fmul
 565              	.LVL75:
 566 00c0 8146     		mov	r9, r0
 567              		.loc 1 81 31 view .LVU135
 568 00c2 5146     		mov	r1, r10
 569 00c4 3846     		mov	r0, r7
 570 00c6 FFF7FEFF 		bl	__aeabi_fmul
 571              	.LVL76:
 572 00ca 0146     		mov	r1, r0
 573              		.loc 1 81 10 view .LVU136
 574 00cc 4846     		mov	r0, r9
 575 00ce FFF7FEFF 		bl	__aeabi_fadd
 576              	.LVL77:
 577 00d2 8146     		mov	r9, r0
 578              	.LVL78:
  82:Application/MPU6050.c **** 		halfvz = q[0] * q[0] - 0.5f + q[3] * q[3];
 579              		.loc 1 82 3 is_stmt 1 view .LVU137
 580              		.loc 1 82 17 is_stmt 0 view .LVU138
 581 00d4 4146     		mov	r1, r8
 582 00d6 4046     		mov	r0, r8
 583              	.LVL79:
 584              		.loc 1 82 17 view .LVU139
 585 00d8 FFF7FEFF 		bl	__aeabi_fmul
 586              	.LVL80:
 587              		.loc 1 82 24 view .LVU140
 588 00dc 4FF07C51 		mov	r1, #1056964608
 589 00e0 FFF7FEFF 		bl	__aeabi_fsub
 590              	.LVL81:
 591 00e4 8046     		mov	r8, r0
 592              		.loc 1 82 38 view .LVU141
 593 00e6 3946     		mov	r1, r7
 594 00e8 3846     		mov	r0, r7
 595 00ea FFF7FEFF 		bl	__aeabi_fmul
 596              	.LVL82:
 597 00ee 0146     		mov	r1, r0
 598              		.loc 1 82 10 view .LVU142
 599 00f0 4046     		mov	r0, r8
 600 00f2 FFF7FEFF 		bl	__aeabi_fadd
 601              	.LVL83:
 602 00f6 0746     		mov	r7, r0
 603              	.LVL84:
  83:Application/MPU6050.c **** 	
  84:Application/MPU6050.c **** 		// Error is sum of cross product between estimated and measured direction of gravity
  85:Application/MPU6050.c ****         // Õ»╣Õ«×ķÖģķćŹÕŖøÕŖĀķĆ¤Õ║”ÕÉæķćÅvõĖÄńÉåĶ«║ķćŹÕŖøÕŖĀķĆ¤Õ║”ÕÉæķćÅgÕüÜÕż¢ń¦»
  86:Application/MPU6050.c **** 		halfex = (ay * halfvz - az * halfvy);
 604              		.loc 1 86 3 is_stmt 1 view .LVU143
ARM GAS  C:\Users\ASUS\AppData\Local\Temp\cc6sGpfU.s 			page 13


 605              		.loc 1 86 16 is_stmt 0 view .LVU144
 606 00f8 0146     		mov	r1, r0
 607 00fa 0298     		ldr	r0, [sp, #8]	@ float
 608              	.LVL85:
 609              		.loc 1 86 16 view .LVU145
 610 00fc FFF7FEFF 		bl	__aeabi_fmul
 611              	.LVL86:
 612              		.loc 1 86 16 view .LVU146
 613 0100 8046     		mov	r8, r0
 614              		.loc 1 86 30 view .LVU147
 615 0102 4946     		mov	r1, r9
 616 0104 5846     		mov	r0, fp
 617 0106 FFF7FEFF 		bl	__aeabi_fmul
 618              	.LVL87:
 619 010a 0146     		mov	r1, r0
 620              		.loc 1 86 10 view .LVU148
 621 010c 4046     		mov	r0, r8
 622 010e FFF7FEFF 		bl	__aeabi_fsub
 623              	.LVL88:
 624 0112 8046     		mov	r8, r0
 625              	.LVL89:
  87:Application/MPU6050.c **** 		halfey = (az * halfvx - ax * halfvz);
 626              		.loc 1 87 3 is_stmt 1 view .LVU149
 627              		.loc 1 87 16 is_stmt 0 view .LVU150
 628 0114 3146     		mov	r1, r6
 629 0116 5846     		mov	r0, fp
 630              	.LVL90:
 631              		.loc 1 87 16 view .LVU151
 632 0118 FFF7FEFF 		bl	__aeabi_fmul
 633              	.LVL91:
 634 011c 8246     		mov	r10, r0
 635              		.loc 1 87 30 view .LVU152
 636 011e 3946     		mov	r1, r7
 637 0120 DDF80CB0 		ldr	fp, [sp, #12]	@ float
 638              	.LVL92:
 639              		.loc 1 87 30 view .LVU153
 640 0124 5846     		mov	r0, fp
 641 0126 FFF7FEFF 		bl	__aeabi_fmul
 642              	.LVL93:
 643 012a 0146     		mov	r1, r0
 644              		.loc 1 87 10 view .LVU154
 645 012c 5046     		mov	r0, r10
 646 012e FFF7FEFF 		bl	__aeabi_fsub
 647              	.LVL94:
 648 0132 0746     		mov	r7, r0
 649              	.LVL95:
  88:Application/MPU6050.c **** 		halfez = (ax * halfvy - ay * halfvx);
 650              		.loc 1 88 3 is_stmt 1 view .LVU155
 651              		.loc 1 88 16 is_stmt 0 view .LVU156
 652 0134 4946     		mov	r1, r9
 653 0136 5846     		mov	r0, fp
 654              	.LVL96:
 655              		.loc 1 88 16 view .LVU157
 656 0138 FFF7FEFF 		bl	__aeabi_fmul
 657              	.LVL97:
 658 013c 8146     		mov	r9, r0
 659              	.LVL98:
ARM GAS  C:\Users\ASUS\AppData\Local\Temp\cc6sGpfU.s 			page 14


 660              		.loc 1 88 30 view .LVU158
 661 013e 3146     		mov	r1, r6
 662 0140 0298     		ldr	r0, [sp, #8]	@ float
 663 0142 FFF7FEFF 		bl	__aeabi_fmul
 664              	.LVL99:
 665 0146 0146     		mov	r1, r0
 666              		.loc 1 88 10 view .LVU159
 667 0148 4846     		mov	r0, r9
 668 014a FFF7FEFF 		bl	__aeabi_fsub
 669              	.LVL100:
 670 014e 0646     		mov	r6, r0
 671              	.LVL101:
  89:Application/MPU6050.c **** 
  90:Application/MPU6050.c **** 		// Compute and apply integral feedback if enabled
  91:Application/MPU6050.c ****         // Õ£©PIĶĪźÕü┐ÕÖ©õĖŁń¦»ÕłåķĪ╣õĮ┐ĶāĮµāģÕåĄõĖŗĶ«Īń«ŚÕ╣ČÕ║öńö©ń¦»ÕłåķĪ╣
  92:Application/MPU6050.c **** 		if(twoKiDef > 0.0f) {
 672              		.loc 1 92 3 is_stmt 1 view .LVU160
  93:Application/MPU6050.c ****             // integral error scaled by Ki
  94:Application/MPU6050.c ****             // ń¦»ÕłåĶ┐ćń©ŗ
  95:Application/MPU6050.c **** 			integralFBx += twoKiDef * halfex * (1.0f / sampleFreq);	
 673              		.loc 1 95 4 view .LVU161
 674              		.loc 1 95 28 is_stmt 0 view .LVU162
 675 0150 8C49     		ldr	r1, .L20
 676 0152 4046     		mov	r0, r8
 677              	.LVL102:
 678              		.loc 1 95 28 view .LVU163
 679 0154 FFF7FEFF 		bl	__aeabi_fmul
 680              	.LVL103:
 681              		.loc 1 95 37 view .LVU164
 682 0158 8B49     		ldr	r1, .L20+4
 683 015a FFF7FEFF 		bl	__aeabi_fmul
 684              	.LVL104:
 685              		.loc 1 95 16 view .LVU165
 686 015e DFF82CB2 		ldr	fp, .L20+8
 687 0162 DBF80010 		ldr	r1, [fp]	@ float
 688 0166 FFF7FEFF 		bl	__aeabi_fadd
 689              	.LVL105:
 690 016a CBF80000 		str	r0, [fp]	@ float
  96:Application/MPU6050.c **** 			integralFBy += twoKiDef * halfey * (1.0f / sampleFreq);
 691              		.loc 1 96 4 is_stmt 1 view .LVU166
 692              		.loc 1 96 28 is_stmt 0 view .LVU167
 693 016e 8549     		ldr	r1, .L20
 694 0170 3846     		mov	r0, r7
 695 0172 FFF7FEFF 		bl	__aeabi_fmul
 696              	.LVL106:
 697              		.loc 1 96 37 view .LVU168
 698 0176 8449     		ldr	r1, .L20+4
 699 0178 FFF7FEFF 		bl	__aeabi_fmul
 700              	.LVL107:
 701              		.loc 1 96 16 view .LVU169
 702 017c DFF810A2 		ldr	r10, .L20+12
 703 0180 DAF80010 		ldr	r1, [r10]	@ float
 704 0184 FFF7FEFF 		bl	__aeabi_fadd
 705              	.LVL108:
 706 0188 CAF80000 		str	r0, [r10]	@ float
  97:Application/MPU6050.c **** 			integralFBz += twoKiDef * halfez * (1.0f / sampleFreq);
 707              		.loc 1 97 4 is_stmt 1 view .LVU170
ARM GAS  C:\Users\ASUS\AppData\Local\Temp\cc6sGpfU.s 			page 15


 708              		.loc 1 97 28 is_stmt 0 view .LVU171
 709 018c 7D49     		ldr	r1, .L20
 710 018e 3046     		mov	r0, r6
 711 0190 FFF7FEFF 		bl	__aeabi_fmul
 712              	.LVL109:
 713              		.loc 1 97 37 view .LVU172
 714 0194 7C49     		ldr	r1, .L20+4
 715 0196 FFF7FEFF 		bl	__aeabi_fmul
 716              	.LVL110:
 717              		.loc 1 97 16 view .LVU173
 718 019a DFF8F891 		ldr	r9, .L20+16
 719 019e D9F80010 		ldr	r1, [r9]	@ float
 720 01a2 FFF7FEFF 		bl	__aeabi_fadd
 721              	.LVL111:
 722 01a6 C9F80000 		str	r0, [r9]	@ float
  98:Application/MPU6050.c ****             
  99:Application/MPU6050.c ****             // apply integral feedback
 100:Application/MPU6050.c ****             // Õ║öńö©Ķ»»ÕĘ«ĶĪźÕü┐õĖŁńÜäń¦»ÕłåķĪ╣
 101:Application/MPU6050.c **** 			gx += integralFBx;	
 723              		.loc 1 101 4 is_stmt 1 view .LVU174
 724 01aa DBF80010 		ldr	r1, [fp]	@ float
 725              		.loc 1 101 7 is_stmt 0 view .LVU175
 726 01ae 2846     		mov	r0, r5
 727 01b0 FFF7FEFF 		bl	__aeabi_fadd
 728              	.LVL112:
 729 01b4 0546     		mov	r5, r0
 730              	.LVL113:
 102:Application/MPU6050.c **** 			gy += integralFBy;
 731              		.loc 1 102 4 is_stmt 1 view .LVU176
 732 01b6 DAF80010 		ldr	r1, [r10]	@ float
 733              		.loc 1 102 7 is_stmt 0 view .LVU177
 734 01ba 0098     		ldr	r0, [sp]	@ float
 735              	.LVL114:
 736              		.loc 1 102 7 view .LVU178
 737 01bc FFF7FEFF 		bl	__aeabi_fadd
 738              	.LVL115:
 739 01c0 8246     		mov	r10, r0
 740              	.LVL116:
 103:Application/MPU6050.c **** 			gz += integralFBz;
 741              		.loc 1 103 4 is_stmt 1 view .LVU179
 742 01c2 D9F80010 		ldr	r1, [r9]	@ float
 743              		.loc 1 103 7 is_stmt 0 view .LVU180
 744 01c6 0198     		ldr	r0, [sp, #4]	@ float
 745              	.LVL117:
 746              		.loc 1 103 7 view .LVU181
 747 01c8 FFF7FEFF 		bl	__aeabi_fadd
 748              	.LVL118:
 749 01cc 8146     		mov	r9, r0
 750              	.LVL119:
 104:Application/MPU6050.c **** 		}
 105:Application/MPU6050.c **** 		else {
 106:Application/MPU6050.c ****             // prevent integral windup
 107:Application/MPU6050.c ****             // ķü┐ÕģŹõĖ║Ķ┤¤ÕĆ╝ńÜäKiµŚČń¦»ÕłåÕ╝éÕĖĖķź▒ÕÆī
 108:Application/MPU6050.c **** 			integralFBx = 0.0f;	
 109:Application/MPU6050.c **** 			integralFBy = 0.0f;
 110:Application/MPU6050.c **** 			integralFBz = 0.0f;
 111:Application/MPU6050.c **** 		}
ARM GAS  C:\Users\ASUS\AppData\Local\Temp\cc6sGpfU.s 			page 16


 112:Application/MPU6050.c **** 
 113:Application/MPU6050.c **** 		// Apply proportional feedback
 114:Application/MPU6050.c ****         // Õ║öńö©Ķ»»ÕĘ«ĶĪźÕü┐õĖŁńÜäµ»öõŠŗķĪ╣
 115:Application/MPU6050.c **** 		gx += twoKpDef * halfex;
 751              		.loc 1 115 3 is_stmt 1 view .LVU182
 752              		.loc 1 115 18 is_stmt 0 view .LVU183
 753 01ce 7249     		ldr	r1, .L20+20
 754 01d0 4046     		mov	r0, r8
 755              	.LVL120:
 756              		.loc 1 115 18 view .LVU184
 757 01d2 FFF7FEFF 		bl	__aeabi_fmul
 758              	.LVL121:
 759              		.loc 1 115 6 view .LVU185
 760 01d6 2946     		mov	r1, r5
 761 01d8 FFF7FEFF 		bl	__aeabi_fadd
 762              	.LVL122:
 763 01dc 0546     		mov	r5, r0
 764              	.LVL123:
 116:Application/MPU6050.c **** 		gy += twoKpDef * halfey;
 765              		.loc 1 116 3 is_stmt 1 view .LVU186
 766              		.loc 1 116 18 is_stmt 0 view .LVU187
 767 01de 6E49     		ldr	r1, .L20+20
 768 01e0 3846     		mov	r0, r7
 769              	.LVL124:
 770              		.loc 1 116 18 view .LVU188
 771 01e2 FFF7FEFF 		bl	__aeabi_fmul
 772              	.LVL125:
 773              		.loc 1 116 6 view .LVU189
 774 01e6 5146     		mov	r1, r10
 775 01e8 FFF7FEFF 		bl	__aeabi_fadd
 776              	.LVL126:
 777 01ec 0090     		str	r0, [sp]	@ float
 778              	.LVL127:
 117:Application/MPU6050.c **** 		gz += twoKpDef * halfez;
 779              		.loc 1 117 3 is_stmt 1 view .LVU190
 780              		.loc 1 117 18 is_stmt 0 view .LVU191
 781 01ee 6A49     		ldr	r1, .L20+20
 782 01f0 3046     		mov	r0, r6
 783              	.LVL128:
 784              		.loc 1 117 18 view .LVU192
 785 01f2 FFF7FEFF 		bl	__aeabi_fmul
 786              	.LVL129:
 787              		.loc 1 117 6 view .LVU193
 788 01f6 4946     		mov	r1, r9
 789 01f8 FFF7FEFF 		bl	__aeabi_fadd
 790              	.LVL130:
 791 01fc 0190     		str	r0, [sp, #4]	@ float
 792              	.LVL131:
 793              	.L17:
 118:Application/MPU6050.c **** 	}
 119:Application/MPU6050.c **** 	
 120:Application/MPU6050.c **** 	// Integrate rate of change of quaternion
 121:Application/MPU6050.c ****     // ÕŠ«Õłåµ¢╣ń©ŗĶ┐Łõ╗Żµ▒éĶ¦Ż
 122:Application/MPU6050.c **** 	gx *= (0.5f * (1.0f / sampleFreq));		// pre-multiply common factors
 794              		.loc 1 122 2 is_stmt 1 view .LVU194
 795              		.loc 1 122 5 is_stmt 0 view .LVU195
 796 01fe 6749     		ldr	r1, .L20+24
ARM GAS  C:\Users\ASUS\AppData\Local\Temp\cc6sGpfU.s 			page 17


 797 0200 2846     		mov	r0, r5
 798 0202 FFF7FEFF 		bl	__aeabi_fmul
 799              	.LVL132:
 800 0206 0546     		mov	r5, r0
 801              	.LVL133:
 123:Application/MPU6050.c **** 	gy *= (0.5f * (1.0f / sampleFreq));
 802              		.loc 1 123 2 is_stmt 1 view .LVU196
 803              		.loc 1 123 5 is_stmt 0 view .LVU197
 804 0208 6449     		ldr	r1, .L20+24
 805 020a 0098     		ldr	r0, [sp]	@ float
 806              	.LVL134:
 807              		.loc 1 123 5 view .LVU198
 808 020c FFF7FEFF 		bl	__aeabi_fmul
 809              	.LVL135:
 810 0210 0646     		mov	r6, r0
 811              	.LVL136:
 124:Application/MPU6050.c **** 	gz *= (0.5f * (1.0f / sampleFreq));
 812              		.loc 1 124 2 is_stmt 1 view .LVU199
 813              		.loc 1 124 5 is_stmt 0 view .LVU200
 814 0212 6249     		ldr	r1, .L20+24
 815 0214 0198     		ldr	r0, [sp, #4]	@ float
 816              	.LVL137:
 817              		.loc 1 124 5 view .LVU201
 818 0216 FFF7FEFF 		bl	__aeabi_fmul
 819              	.LVL138:
 820 021a 0746     		mov	r7, r0
 821              	.LVL139:
 125:Application/MPU6050.c **** 	qa = q[0];
 822              		.loc 1 125 2 is_stmt 1 view .LVU202
 823              		.loc 1 125 5 is_stmt 0 view .LVU203
 824 021c D4F800B0 		ldr	fp, [r4]	@ float
 825              	.LVL140:
 126:Application/MPU6050.c **** 	qb = q[1];
 826              		.loc 1 126 2 is_stmt 1 view .LVU204
 827              		.loc 1 126 5 is_stmt 0 view .LVU205
 828 0220 D4F804A0 		ldr	r10, [r4, #4]	@ float
 829              	.LVL141:
 127:Application/MPU6050.c **** 	qc = q[2];
 830              		.loc 1 127 2 is_stmt 1 view .LVU206
 831              		.loc 1 127 5 is_stmt 0 view .LVU207
 832 0224 D4F80890 		ldr	r9, [r4, #8]	@ float
 833              	.LVL142:
 128:Application/MPU6050.c **** 	q[0] += (-qb * gx - qc * gy - q[3] * gz); 
 834              		.loc 1 128 2 is_stmt 1 view .LVU208
 835              		.loc 1 128 11 is_stmt 0 view .LVU209
 836 0228 0AF10040 		add	r0, r10, #-2147483648
 837              	.LVL143:
 838              		.loc 1 128 15 view .LVU210
 839 022c 0095     		str	r5, [sp]	@ float
 840 022e 2946     		mov	r1, r5
 841 0230 FFF7FEFF 		bl	__aeabi_fmul
 842              	.LVL144:
 843 0234 0546     		mov	r5, r0
 844              	.LVL145:
 845              		.loc 1 128 25 view .LVU211
 846 0236 4946     		mov	r1, r9
 847 0238 3046     		mov	r0, r6
ARM GAS  C:\Users\ASUS\AppData\Local\Temp\cc6sGpfU.s 			page 18


 848 023a FFF7FEFF 		bl	__aeabi_fmul
 849              	.LVL146:
 850 023e 0146     		mov	r1, r0
 851              		.loc 1 128 20 view .LVU212
 852 0240 2846     		mov	r0, r5
 853 0242 FFF7FEFF 		bl	__aeabi_fsub
 854              	.LVL147:
 855 0246 0546     		mov	r5, r0
 856              		.loc 1 128 33 view .LVU213
 857 0248 D4F80C80 		ldr	r8, [r4, #12]	@ float
 858              		.loc 1 128 37 view .LVU214
 859 024c 3946     		mov	r1, r7
 860 024e 4046     		mov	r0, r8
 861 0250 FFF7FEFF 		bl	__aeabi_fmul
 862              	.LVL148:
 863 0254 0146     		mov	r1, r0
 864              		.loc 1 128 30 view .LVU215
 865 0256 2846     		mov	r0, r5
 866 0258 FFF7FEFF 		bl	__aeabi_fsub
 867              	.LVL149:
 868              		.loc 1 128 7 view .LVU216
 869 025c 5946     		mov	r1, fp
 870 025e FFF7FEFF 		bl	__aeabi_fadd
 871              	.LVL150:
 872 0262 0190     		str	r0, [sp, #4]	@ float
 873 0264 2060     		str	r0, [r4]	@ float
 129:Application/MPU6050.c **** 	q[1] += (qa * gx + qc * gz - q[3] * gy);
 874              		.loc 1 129 2 is_stmt 1 view .LVU217
 875              		.loc 1 129 14 is_stmt 0 view .LVU218
 876 0266 5946     		mov	r1, fp
 877 0268 0098     		ldr	r0, [sp]	@ float
 878 026a FFF7FEFF 		bl	__aeabi_fmul
 879              	.LVL151:
 880 026e 0546     		mov	r5, r0
 881              		.loc 1 129 24 view .LVU219
 882 0270 4946     		mov	r1, r9
 883 0272 3846     		mov	r0, r7
 884 0274 FFF7FEFF 		bl	__aeabi_fmul
 885              	.LVL152:
 886 0278 0146     		mov	r1, r0
 887              		.loc 1 129 19 view .LVU220
 888 027a 2846     		mov	r0, r5
 889 027c FFF7FEFF 		bl	__aeabi_fadd
 890              	.LVL153:
 891 0280 0546     		mov	r5, r0
 892              		.loc 1 129 36 view .LVU221
 893 0282 3146     		mov	r1, r6
 894 0284 4046     		mov	r0, r8
 895 0286 FFF7FEFF 		bl	__aeabi_fmul
 896              	.LVL154:
 897 028a 0146     		mov	r1, r0
 898              		.loc 1 129 29 view .LVU222
 899 028c 2846     		mov	r0, r5
 900 028e FFF7FEFF 		bl	__aeabi_fsub
 901              	.LVL155:
 902              		.loc 1 129 7 view .LVU223
 903 0292 5146     		mov	r1, r10
ARM GAS  C:\Users\ASUS\AppData\Local\Temp\cc6sGpfU.s 			page 19


 904 0294 FFF7FEFF 		bl	__aeabi_fadd
 905              	.LVL156:
 906 0298 0290     		str	r0, [sp, #8]	@ float
 907 029a 6060     		str	r0, [r4, #4]	@ float
 130:Application/MPU6050.c **** 	q[2] += (qa * gy - qb * gz + q[3] * gx);
 908              		.loc 1 130 2 is_stmt 1 view .LVU224
 909              		.loc 1 130 14 is_stmt 0 view .LVU225
 910 029c 5946     		mov	r1, fp
 911 029e 3046     		mov	r0, r6
 912 02a0 FFF7FEFF 		bl	__aeabi_fmul
 913              	.LVL157:
 914 02a4 0546     		mov	r5, r0
 915              		.loc 1 130 24 view .LVU226
 916 02a6 5146     		mov	r1, r10
 917 02a8 3846     		mov	r0, r7
 918 02aa FFF7FEFF 		bl	__aeabi_fmul
 919              	.LVL158:
 920 02ae 0146     		mov	r1, r0
 921              		.loc 1 130 19 view .LVU227
 922 02b0 2846     		mov	r0, r5
 923 02b2 FFF7FEFF 		bl	__aeabi_fsub
 924              	.LVL159:
 925 02b6 0546     		mov	r5, r0
 926              		.loc 1 130 36 view .LVU228
 927 02b8 0099     		ldr	r1, [sp]	@ float
 928 02ba 4046     		mov	r0, r8
 929 02bc FFF7FEFF 		bl	__aeabi_fmul
 930              	.LVL160:
 931 02c0 0146     		mov	r1, r0
 932              		.loc 1 130 29 view .LVU229
 933 02c2 2846     		mov	r0, r5
 934 02c4 FFF7FEFF 		bl	__aeabi_fadd
 935              	.LVL161:
 936              		.loc 1 130 7 view .LVU230
 937 02c8 4946     		mov	r1, r9
 938 02ca FFF7FEFF 		bl	__aeabi_fadd
 939              	.LVL162:
 940 02ce 0546     		mov	r5, r0
 941 02d0 A060     		str	r0, [r4, #8]	@ float
 131:Application/MPU6050.c **** 	q[3] += (qa * gz + qb * gy - qc * gx); 
 942              		.loc 1 131 2 is_stmt 1 view .LVU231
 943              		.loc 1 131 14 is_stmt 0 view .LVU232
 944 02d2 5946     		mov	r1, fp
 945 02d4 3846     		mov	r0, r7
 946 02d6 FFF7FEFF 		bl	__aeabi_fmul
 947              	.LVL163:
 948 02da 0746     		mov	r7, r0
 949              	.LVL164:
 950              		.loc 1 131 24 view .LVU233
 951 02dc 5146     		mov	r1, r10
 952 02de 3046     		mov	r0, r6
 953 02e0 FFF7FEFF 		bl	__aeabi_fmul
 954              	.LVL165:
 955 02e4 0146     		mov	r1, r0
 956              		.loc 1 131 19 view .LVU234
 957 02e6 3846     		mov	r0, r7
 958 02e8 FFF7FEFF 		bl	__aeabi_fadd
ARM GAS  C:\Users\ASUS\AppData\Local\Temp\cc6sGpfU.s 			page 20


 959              	.LVL166:
 960 02ec 0646     		mov	r6, r0
 961              	.LVL167:
 962              		.loc 1 131 34 view .LVU235
 963 02ee 4946     		mov	r1, r9
 964 02f0 0098     		ldr	r0, [sp]	@ float
 965 02f2 FFF7FEFF 		bl	__aeabi_fmul
 966              	.LVL168:
 967 02f6 0146     		mov	r1, r0
 968              		.loc 1 131 29 view .LVU236
 969 02f8 3046     		mov	r0, r6
 970 02fa FFF7FEFF 		bl	__aeabi_fsub
 971              	.LVL169:
 972 02fe 0146     		mov	r1, r0
 973              		.loc 1 131 7 view .LVU237
 974 0300 4046     		mov	r0, r8
 975 0302 FFF7FEFF 		bl	__aeabi_fadd
 976              	.LVL170:
 977 0306 0646     		mov	r6, r0
 978 0308 E060     		str	r0, [r4, #12]	@ float
 132:Application/MPU6050.c **** 	
 133:Application/MPU6050.c **** 	// Normalise quaternion
 134:Application/MPU6050.c ****     // ÕŹĢõĮŹÕī¢ÕøøÕģāµĢ░ õ┐ØĶ»üÕøøÕģāµĢ░Õ£©Ķ┐Łõ╗ŻĶ┐ćń©ŗõĖŁõ┐ØµīüÕŹĢõĮŹµĆ¦Ķ┤©
 135:Application/MPU6050.c **** 	recipNorm = invSqrt(q[0] * q[0] + q[1] * q[1] + q[2] * q[2] + q[3] * q[3]);
 979              		.loc 1 135 2 is_stmt 1 view .LVU238
 980              		.loc 1 135 27 is_stmt 0 view .LVU239
 981 030a DDF80480 		ldr	r8, [sp, #4]	@ float
 982 030e 4146     		mov	r1, r8
 983 0310 4046     		mov	r0, r8
 984 0312 FFF7FEFF 		bl	__aeabi_fmul
 985              	.LVL171:
 986 0316 0746     		mov	r7, r0
 987              		.loc 1 135 41 view .LVU240
 988 0318 DDF80890 		ldr	r9, [sp, #8]	@ float
 989              	.LVL172:
 990              		.loc 1 135 41 view .LVU241
 991 031c 4946     		mov	r1, r9
 992 031e 4846     		mov	r0, r9
 993 0320 FFF7FEFF 		bl	__aeabi_fmul
 994              	.LVL173:
 995 0324 0146     		mov	r1, r0
 996              		.loc 1 135 34 view .LVU242
 997 0326 3846     		mov	r0, r7
 998 0328 FFF7FEFF 		bl	__aeabi_fadd
 999              	.LVL174:
 1000 032c 0746     		mov	r7, r0
 1001              		.loc 1 135 55 view .LVU243
 1002 032e 2946     		mov	r1, r5
 1003 0330 2846     		mov	r0, r5
 1004 0332 FFF7FEFF 		bl	__aeabi_fmul
 1005              	.LVL175:
 1006 0336 0146     		mov	r1, r0
 1007              		.loc 1 135 48 view .LVU244
 1008 0338 3846     		mov	r0, r7
 1009 033a FFF7FEFF 		bl	__aeabi_fadd
 1010              	.LVL176:
 1011 033e 0746     		mov	r7, r0
ARM GAS  C:\Users\ASUS\AppData\Local\Temp\cc6sGpfU.s 			page 21


 1012              		.loc 1 135 69 view .LVU245
 1013 0340 3146     		mov	r1, r6
 1014 0342 3046     		mov	r0, r6
 1015 0344 FFF7FEFF 		bl	__aeabi_fmul
 1016              	.LVL177:
 1017 0348 0146     		mov	r1, r0
 1018              		.loc 1 135 14 view .LVU246
 1019 034a 3846     		mov	r0, r7
 1020 034c FFF7FEFF 		bl	__aeabi_fadd
 1021              	.LVL178:
 1022 0350 FFF7FEFF 		bl	invSqrt
 1023              	.LVL179:
 1024 0354 0746     		mov	r7, r0
 1025              	.LVL180:
 136:Application/MPU6050.c **** 	q[0] *= recipNorm;
 1026              		.loc 1 136 2 is_stmt 1 view .LVU247
 1027              		.loc 1 136 7 is_stmt 0 view .LVU248
 1028 0356 0146     		mov	r1, r0
 1029 0358 4046     		mov	r0, r8
 1030              	.LVL181:
 1031              		.loc 1 136 7 view .LVU249
 1032 035a FFF7FEFF 		bl	__aeabi_fmul
 1033              	.LVL182:
 1034              		.loc 1 136 7 view .LVU250
 1035 035e 2060     		str	r0, [r4]	@ float
 137:Application/MPU6050.c **** 	q[1] *= recipNorm;
 1036              		.loc 1 137 2 is_stmt 1 view .LVU251
 1037              		.loc 1 137 7 is_stmt 0 view .LVU252
 1038 0360 3946     		mov	r1, r7
 1039 0362 4846     		mov	r0, r9
 1040 0364 FFF7FEFF 		bl	__aeabi_fmul
 1041              	.LVL183:
 1042 0368 6060     		str	r0, [r4, #4]	@ float
 138:Application/MPU6050.c **** 	q[2] *= recipNorm;
 1043              		.loc 1 138 2 is_stmt 1 view .LVU253
 1044              		.loc 1 138 7 is_stmt 0 view .LVU254
 1045 036a 3946     		mov	r1, r7
 1046 036c 2846     		mov	r0, r5
 1047 036e FFF7FEFF 		bl	__aeabi_fmul
 1048              	.LVL184:
 1049 0372 A060     		str	r0, [r4, #8]	@ float
 139:Application/MPU6050.c **** 	q[3] *= recipNorm;}
 1050              		.loc 1 139 2 is_stmt 1 view .LVU255
 1051              		.loc 1 139 7 is_stmt 0 view .LVU256
 1052 0374 3946     		mov	r1, r7
 1053 0376 3046     		mov	r0, r6
 1054 0378 FFF7FEFF 		bl	__aeabi_fmul
 1055              	.LVL185:
 1056 037c E060     		str	r0, [r4, #12]	@ float
 1057              		.loc 1 139 20 view .LVU257
 1058 037e 05B0     		add	sp, sp, #20
 1059              	.LCFI9:
 1060              		.cfi_def_cfa_offset 36
 1061              	.LVL186:
 1062              		.loc 1 139 20 view .LVU258
 1063              		@ sp needed
 1064 0380 BDE8F08F 		pop	{r4, r5, r6, r7, r8, r9, r10, fp, pc}
ARM GAS  C:\Users\ASUS\AppData\Local\Temp\cc6sGpfU.s 			page 22


 1065              	.LVL187:
 1066              	.L21:
 1067              		.loc 1 139 20 view .LVU259
 1068              		.align	2
 1069              	.L20:
 1070 0384 6F12033B 		.word	990057071
 1071 0388 6F12833A 		.word	981668463
 1072 038c 00000000 		.word	integralFBx
 1073 0390 00000000 		.word	integralFBy
 1074 0394 00000000 		.word	integralFBz
 1075 0398 00002642 		.word	1109786624
 1076 039c 6F12033A 		.word	973279855
 1077              		.cfi_endproc
 1078              	.LFE68:
 1080              		.section	.text.calculate,"ax",%progbits
 1081              		.align	1
 1082              		.global	calculate
 1083              		.syntax unified
 1084              		.thumb
 1085              		.thumb_func
 1087              	calculate:
 1088              	.LFB69:
 140:Application/MPU6050.c ****     
 141:Application/MPU6050.c **** void calculate(void)
 142:Application/MPU6050.c **** {
 1089              		.loc 1 142 1 is_stmt 1 view -0
 1090              		.cfi_startproc
 1091              		@ args = 0, pretend = 0, frame = 16
 1092              		@ frame_needed = 0, uses_anonymous_args = 0
 1093 0000 2DE9F04F 		push	{r4, r5, r6, r7, r8, r9, r10, fp, lr}
 1094              	.LCFI10:
 1095              		.cfi_def_cfa_offset 36
 1096              		.cfi_offset 4, -36
 1097              		.cfi_offset 5, -32
 1098              		.cfi_offset 6, -28
 1099              		.cfi_offset 7, -24
 1100              		.cfi_offset 8, -20
 1101              		.cfi_offset 9, -16
 1102              		.cfi_offset 10, -12
 1103              		.cfi_offset 11, -8
 1104              		.cfi_offset 14, -4
 1105 0004 85B0     		sub	sp, sp, #20
 1106              	.LCFI11:
 1107              		.cfi_def_cfa_offset 56
 143:Application/MPU6050.c **** 	MPU6050_ReadRawData(&mf);
 1108              		.loc 1 143 2 view .LVU261
 1109 0006 564C     		ldr	r4, .L24+8
 1110 0008 2046     		mov	r0, r4
 1111 000a FFF7FEFF 		bl	MPU6050_ReadRawData
 1112              	.LVL188:
 144:Application/MPU6050.c **** 	MahonyAHRSupdateIMU(&mf, q);
 1113              		.loc 1 144 2 view .LVU262
 1114 000e 554F     		ldr	r7, .L24+12
 1115 0010 3946     		mov	r1, r7
 1116 0012 2046     		mov	r0, r4
 1117 0014 FFF7FEFF 		bl	MahonyAHRSupdateIMU
 1118              	.LVL189:
ARM GAS  C:\Users\ASUS\AppData\Local\Temp\cc6sGpfU.s 			page 23


 145:Application/MPU6050.c ****     n.Pitch = asinf(-2.0f * (q[1]*q[3] - q[0]*q[2])) * 180.0f / M_PI;
 1119              		.loc 1 145 5 view .LVU263
 1120              		.loc 1 145 31 is_stmt 0 view .LVU264
 1121 0018 7E68     		ldr	r6, [r7, #4]	@ float
 1122              		.loc 1 145 36 view .LVU265
 1123 001a FC68     		ldr	r4, [r7, #12]	@ float
 1124              		.loc 1 145 34 view .LVU266
 1125 001c 2146     		mov	r1, r4
 1126 001e 3046     		mov	r0, r6
 1127 0020 FFF7FEFF 		bl	__aeabi_fmul
 1128              	.LVL190:
 1129 0024 8046     		mov	r8, r0
 1130              		.loc 1 145 43 view .LVU267
 1131 0026 3D68     		ldr	r5, [r7]	@ float
 1132              		.loc 1 145 48 view .LVU268
 1133 0028 BF68     		ldr	r7, [r7, #8]	@ float
 1134              		.loc 1 145 46 view .LVU269
 1135 002a 3946     		mov	r1, r7
 1136 002c 2846     		mov	r0, r5
 1137 002e FFF7FEFF 		bl	__aeabi_fmul
 1138              	.LVL191:
 1139 0032 0146     		mov	r1, r0
 1140              		.loc 1 145 40 view .LVU270
 1141 0034 4046     		mov	r0, r8
 1142 0036 FFF7FEFF 		bl	__aeabi_fsub
 1143              	.LVL192:
 1144              		.loc 1 145 15 view .LVU271
 1145 003a 4FF04041 		mov	r1, #-1073741824
 1146 003e FFF7FEFF 		bl	__aeabi_fmul
 1147              	.LVL193:
 1148 0042 FFF7FEFF 		bl	asinf
 1149              	.LVL194:
 1150              		.loc 1 145 54 view .LVU272
 1151 0046 4849     		ldr	r1, .L24+16
 1152 0048 FFF7FEFF 		bl	__aeabi_fmul
 1153              	.LVL195:
 1154 004c FFF7FEFF 		bl	__aeabi_f2d
 1155              	.LVL196:
 1156              		.loc 1 145 63 view .LVU273
 1157 0050 41A3     		adr	r3, .L24
 1158 0052 D3E90023 		ldrd	r2, [r3]
 1159 0056 FFF7FEFF 		bl	__aeabi_ddiv
 1160              	.LVL197:
 1161 005a FFF7FEFF 		bl	__aeabi_d2f
 1162              	.LVL198:
 1163              		.loc 1 145 13 view .LVU274
 1164 005e DFF80CA1 		ldr	r10, .L24+20
 1165 0062 CAF80000 		str	r0, [r10]	@ float
 146:Application/MPU6050.c ****     n.Roll = atan2f(2.0f * (q[0]*q[1] + q[2]*q[3]), q[0]*q[0] - q[1]*q[1] - q[2]*q[2] + q[3]*q[3]) 
 1166              		.loc 1 146 5 is_stmt 1 view .LVU275
 1167              		.loc 1 146 33 is_stmt 0 view .LVU276
 1168 0066 2946     		mov	r1, r5
 1169 0068 3046     		mov	r0, r6
 1170 006a FFF7FEFF 		bl	__aeabi_fmul
 1171              	.LVL199:
 1172 006e 8046     		mov	r8, r0
 1173              		.loc 1 146 45 view .LVU277
ARM GAS  C:\Users\ASUS\AppData\Local\Temp\cc6sGpfU.s 			page 24


 1174 0070 3946     		mov	r1, r7
 1175 0072 2046     		mov	r0, r4
 1176 0074 FFF7FEFF 		bl	__aeabi_fmul
 1177              	.LVL200:
 1178 0078 0146     		mov	r1, r0
 1179              		.loc 1 146 39 view .LVU278
 1180 007a 4046     		mov	r0, r8
 1181 007c FFF7FEFF 		bl	__aeabi_fadd
 1182              	.LVL201:
 1183 0080 8146     		mov	r9, r0
 1184              		.loc 1 146 57 view .LVU279
 1185 0082 2946     		mov	r1, r5
 1186 0084 2846     		mov	r0, r5
 1187 0086 FFF7FEFF 		bl	__aeabi_fmul
 1188              	.LVL202:
 1189 008a 8346     		mov	fp, r0
 1190              		.loc 1 146 69 view .LVU280
 1191 008c 3146     		mov	r1, r6
 1192 008e 3046     		mov	r0, r6
 1193 0090 FFF7FEFF 		bl	__aeabi_fmul
 1194              	.LVL203:
 1195 0094 8046     		mov	r8, r0
 1196              		.loc 1 146 63 view .LVU281
 1197 0096 0146     		mov	r1, r0
 1198 0098 CDF804B0 		str	fp, [sp, #4]	@ float
 1199 009c 5846     		mov	r0, fp
 1200 009e FFF7FEFF 		bl	__aeabi_fsub
 1201              	.LVL204:
 1202 00a2 8346     		mov	fp, r0
 1203              		.loc 1 146 81 view .LVU282
 1204 00a4 3946     		mov	r1, r7
 1205 00a6 3846     		mov	r0, r7
 1206 00a8 FFF7FEFF 		bl	__aeabi_fmul
 1207              	.LVL205:
 1208              		.loc 1 146 75 view .LVU283
 1209 00ac 0290     		str	r0, [sp, #8]	@ float
 1210 00ae 0146     		mov	r1, r0
 1211 00b0 5846     		mov	r0, fp
 1212 00b2 FFF7FEFF 		bl	__aeabi_fsub
 1213              	.LVL206:
 1214 00b6 8346     		mov	fp, r0
 1215              		.loc 1 146 93 view .LVU284
 1216 00b8 2146     		mov	r1, r4
 1217 00ba 2046     		mov	r0, r4
 1218 00bc FFF7FEFF 		bl	__aeabi_fmul
 1219              	.LVL207:
 1220              		.loc 1 146 14 view .LVU285
 1221 00c0 0390     		str	r0, [sp, #12]	@ float
 1222 00c2 0146     		mov	r1, r0
 1223 00c4 5846     		mov	r0, fp
 1224 00c6 FFF7FEFF 		bl	__aeabi_fadd
 1225              	.LVL208:
 1226 00ca 8346     		mov	fp, r0
 1227 00cc 4946     		mov	r1, r9
 1228 00ce 4846     		mov	r0, r9
 1229 00d0 FFF7FEFF 		bl	__aeabi_fadd
 1230              	.LVL209:
ARM GAS  C:\Users\ASUS\AppData\Local\Temp\cc6sGpfU.s 			page 25


 1231 00d4 5946     		mov	r1, fp
 1232 00d6 FFF7FEFF 		bl	atan2f
 1233              	.LVL210:
 1234              		.loc 1 146 100 view .LVU286
 1235 00da 2349     		ldr	r1, .L24+16
 1236 00dc FFF7FEFF 		bl	__aeabi_fmul
 1237              	.LVL211:
 1238 00e0 FFF7FEFF 		bl	__aeabi_f2d
 1239              	.LVL212:
 1240              		.loc 1 146 109 view .LVU287
 1241 00e4 1CA3     		adr	r3, .L24
 1242 00e6 D3E90023 		ldrd	r2, [r3]
 1243 00ea FFF7FEFF 		bl	__aeabi_ddiv
 1244              	.LVL213:
 1245 00ee FFF7FEFF 		bl	__aeabi_d2f
 1246              	.LVL214:
 1247              		.loc 1 146 12 view .LVU288
 1248 00f2 CAF80400 		str	r0, [r10, #4]	@ float
 147:Application/MPU6050.c ****     n.Yaw = atan2f(2.0f * (q[1]*q[2] + q[0]*q[3]), q[0]*q[0] + q[1]*q[1] - q[2]*q[2] - q[3]*q[3]) *
 1249              		.loc 1 147 5 is_stmt 1 view .LVU289
 1250              		.loc 1 147 32 is_stmt 0 view .LVU290
 1251 00f6 3946     		mov	r1, r7
 1252 00f8 3046     		mov	r0, r6
 1253 00fa FFF7FEFF 		bl	__aeabi_fmul
 1254              	.LVL215:
 1255 00fe 0646     		mov	r6, r0
 1256              		.loc 1 147 44 view .LVU291
 1257 0100 2946     		mov	r1, r5
 1258 0102 2046     		mov	r0, r4
 1259 0104 FFF7FEFF 		bl	__aeabi_fmul
 1260              	.LVL216:
 1261 0108 0146     		mov	r1, r0
 1262              		.loc 1 147 38 view .LVU292
 1263 010a 3046     		mov	r0, r6
 1264 010c FFF7FEFF 		bl	__aeabi_fadd
 1265              	.LVL217:
 1266 0110 0446     		mov	r4, r0
 1267              		.loc 1 147 62 view .LVU293
 1268 0112 4146     		mov	r1, r8
 1269 0114 0198     		ldr	r0, [sp, #4]	@ float
 1270 0116 FFF7FEFF 		bl	__aeabi_fadd
 1271              	.LVL218:
 1272              		.loc 1 147 74 view .LVU294
 1273 011a 0299     		ldr	r1, [sp, #8]	@ float
 1274 011c FFF7FEFF 		bl	__aeabi_fsub
 1275              	.LVL219:
 1276              		.loc 1 147 13 view .LVU295
 1277 0120 0399     		ldr	r1, [sp, #12]	@ float
 1278 0122 FFF7FEFF 		bl	__aeabi_fsub
 1279              	.LVL220:
 1280 0126 0546     		mov	r5, r0
 1281 0128 2146     		mov	r1, r4
 1282 012a 2046     		mov	r0, r4
 1283 012c FFF7FEFF 		bl	__aeabi_fadd
 1284              	.LVL221:
 1285 0130 2946     		mov	r1, r5
 1286 0132 FFF7FEFF 		bl	atan2f
ARM GAS  C:\Users\ASUS\AppData\Local\Temp\cc6sGpfU.s 			page 26


 1287              	.LVL222:
 1288              		.loc 1 147 99 view .LVU296
 1289 0136 0C49     		ldr	r1, .L24+16
 1290 0138 FFF7FEFF 		bl	__aeabi_fmul
 1291              	.LVL223:
 1292 013c FFF7FEFF 		bl	__aeabi_f2d
 1293              	.LVL224:
 1294              		.loc 1 147 108 view .LVU297
 1295 0140 05A3     		adr	r3, .L24
 1296 0142 D3E90023 		ldrd	r2, [r3]
 1297 0146 FFF7FEFF 		bl	__aeabi_ddiv
 1298              	.LVL225:
 1299 014a FFF7FEFF 		bl	__aeabi_d2f
 1300              	.LVL226:
 1301              		.loc 1 147 11 view .LVU298
 1302 014e CAF80800 		str	r0, [r10, #8]	@ float
 148:Application/MPU6050.c **** }
 1303              		.loc 1 148 1 view .LVU299
 1304 0152 05B0     		add	sp, sp, #20
 1305              	.LCFI12:
 1306              		.cfi_def_cfa_offset 36
 1307              		@ sp needed
 1308 0154 BDE8F08F 		pop	{r4, r5, r6, r7, r8, r9, r10, fp, pc}
 1309              	.L25:
 1310              		.align	3
 1311              	.L24:
 1312 0158 182D4454 		.word	1413754136
 1313 015c FB210940 		.word	1074340347
 1314 0160 00000000 		.word	mf
 1315 0164 00000000 		.word	q
 1316 0168 00003443 		.word	1127481344
 1317 016c 00000000 		.word	n
 1318              		.cfi_endproc
 1319              	.LFE69:
 1321              		.global	q
 1322              		.section	.data.q,"aw"
 1323              		.align	2
 1326              	q:
 1327 0000 0000803F 		.word	1065353216
 1328 0004 00000000 		.word	0
 1329 0008 00000000 		.word	0
 1330 000c 00000000 		.word	0
 1331              		.global	integralFBz
 1332              		.section	.bss.integralFBz,"aw",%nobits
 1333              		.align	2
 1336              	integralFBz:
 1337 0000 00000000 		.space	4
 1338              		.global	integralFBy
 1339              		.section	.bss.integralFBy,"aw",%nobits
 1340              		.align	2
 1343              	integralFBy:
 1344 0000 00000000 		.space	4
 1345              		.global	integralFBx
 1346              		.section	.bss.integralFBx,"aw",%nobits
 1347              		.align	2
 1350              	integralFBx:
 1351 0000 00000000 		.space	4
ARM GAS  C:\Users\ASUS\AppData\Local\Temp\cc6sGpfU.s 			page 27


 1352              		.global	mf
 1353              		.section	.bss.mf,"aw",%nobits
 1354              		.align	2
 1357              	mf:
 1358 0000 00000000 		.space	24
 1358      00000000 
 1358      00000000 
 1358      00000000 
 1358      00000000 
 1359              		.global	n
 1360              		.section	.bss.n,"aw",%nobits
 1361              		.align	2
 1364              	n:
 1365 0000 00000000 		.space	12
 1365      00000000 
 1365      00000000 
 1366              		.text
 1367              	.Letext0:
 1368              		.file 2 "d:\\rw\\msys2\\mingw64\\arm-none-eabi\\include\\machine\\_default_types.h"
 1369              		.file 3 "d:\\rw\\msys2\\mingw64\\arm-none-eabi\\include\\sys\\_stdint.h"
 1370              		.file 4 "Drivers/CMSIS/Device/ST/STM32F1xx/Include/stm32f103xe.h"
 1371              		.file 5 "Drivers/STM32F1xx_HAL_Driver/Inc/stm32f1xx_hal_def.h"
 1372              		.file 6 "Drivers/STM32F1xx_HAL_Driver/Inc/stm32f1xx_hal_dma.h"
 1373              		.file 7 "Drivers/STM32F1xx_HAL_Driver/Inc/stm32f1xx_hal_i2c.h"
 1374              		.file 8 "Application/MPU6050.h"
 1375              		.file 9 "d:\\rw\\msys2\\mingw64\\arm-none-eabi\\include\\math.h"
ARM GAS  C:\Users\ASUS\AppData\Local\Temp\cc6sGpfU.s 			page 28


DEFINED SYMBOLS
                            *ABS*:00000000 MPU6050.c
C:\Users\ASUS\AppData\Local\Temp\cc6sGpfU.s:19     .text.MPU6050_Init:00000000 $t
C:\Users\ASUS\AppData\Local\Temp\cc6sGpfU.s:25     .text.MPU6050_Init:00000000 MPU6050_Init
C:\Users\ASUS\AppData\Local\Temp\cc6sGpfU.s:97     .text.MPU6050_Init:00000060 $d
C:\Users\ASUS\AppData\Local\Temp\cc6sGpfU.s:108    .text.MPU6050_ReadRawData:00000000 $t
C:\Users\ASUS\AppData\Local\Temp\cc6sGpfU.s:114    .text.MPU6050_ReadRawData:00000000 MPU6050_ReadRawData
C:\Users\ASUS\AppData\Local\Temp\cc6sGpfU.s:281    .text.MPU6050_ReadRawData:00000100 $d
C:\Users\ASUS\AppData\Local\Temp\cc6sGpfU.s:291    .text.invSqrt:00000000 $t
C:\Users\ASUS\AppData\Local\Temp\cc6sGpfU.s:297    .text.invSqrt:00000000 invSqrt
C:\Users\ASUS\AppData\Local\Temp\cc6sGpfU.s:369    .text.invSqrt:00000044 $d
C:\Users\ASUS\AppData\Local\Temp\cc6sGpfU.s:376    .text.MahonyAHRSupdateIMU:00000000 $t
C:\Users\ASUS\AppData\Local\Temp\cc6sGpfU.s:382    .text.MahonyAHRSupdateIMU:00000000 MahonyAHRSupdateIMU
C:\Users\ASUS\AppData\Local\Temp\cc6sGpfU.s:1070   .text.MahonyAHRSupdateIMU:00000384 $d
C:\Users\ASUS\AppData\Local\Temp\cc6sGpfU.s:1350   .bss.integralFBx:00000000 integralFBx
C:\Users\ASUS\AppData\Local\Temp\cc6sGpfU.s:1343   .bss.integralFBy:00000000 integralFBy
C:\Users\ASUS\AppData\Local\Temp\cc6sGpfU.s:1336   .bss.integralFBz:00000000 integralFBz
C:\Users\ASUS\AppData\Local\Temp\cc6sGpfU.s:1081   .text.calculate:00000000 $t
C:\Users\ASUS\AppData\Local\Temp\cc6sGpfU.s:1087   .text.calculate:00000000 calculate
C:\Users\ASUS\AppData\Local\Temp\cc6sGpfU.s:1312   .text.calculate:00000158 $d
C:\Users\ASUS\AppData\Local\Temp\cc6sGpfU.s:1357   .bss.mf:00000000 mf
C:\Users\ASUS\AppData\Local\Temp\cc6sGpfU.s:1326   .data.q:00000000 q
C:\Users\ASUS\AppData\Local\Temp\cc6sGpfU.s:1364   .bss.n:00000000 n
C:\Users\ASUS\AppData\Local\Temp\cc6sGpfU.s:1323   .data.q:00000000 $d
C:\Users\ASUS\AppData\Local\Temp\cc6sGpfU.s:1333   .bss.integralFBz:00000000 $d
C:\Users\ASUS\AppData\Local\Temp\cc6sGpfU.s:1340   .bss.integralFBy:00000000 $d
C:\Users\ASUS\AppData\Local\Temp\cc6sGpfU.s:1347   .bss.integralFBx:00000000 $d
C:\Users\ASUS\AppData\Local\Temp\cc6sGpfU.s:1354   .bss.mf:00000000 $d
C:\Users\ASUS\AppData\Local\Temp\cc6sGpfU.s:1361   .bss.n:00000000 $d

UNDEFINED SYMBOLS
HAL_I2C_Mem_Write
hi2c1
__aeabi_i2f
__aeabi_fmul
__aeabi_fdiv
__aeabi_f2d
__aeabi_ddiv
__aeabi_d2f
HAL_I2C_Mem_Read
__aeabi_fcmple
__aeabi_fsub
__aeabi_fcmpeq
__aeabi_fadd
asinf
atan2f
